; Function Attrs: nounwind sspstrong uwtable
define internal range(i32 0, 3) i32 @ssl_servername_cb(ptr noundef %0, ptr readnone captures(none) %1, ptr readnone captures(none) %2) #0 {
  %4 = alloca i32, align 4
  call void @llvm.lifetime.start.p0(i64 4, ptr nonnull %4) #9
  %5 = ptrtoint ptr %0 to i64
  %6 = call i64 @rb_protect(ptr noundef nonnull @ossl_call_servername_cb, i64 noundef %5, ptr noundef nonnull %4) #9
  %7 = load i32, ptr %4, align 4, !tbaa !6
  %.not = icmp eq i32 %7, 0
  br i1 %.not, label %18, label %8

8:                                                ; preds = %3
  %9 = load i32, ptr @ossl_ssl_ex_ptr_idx, align 4, !tbaa !6
  %10 = call ptr @SSL_get_ex_data(ptr noundef %0, i32 noundef %9) #9
  %11 = ptrtoint ptr %10 to i64
  %12 = load i64, ptr @ID_callback_state, align 8, !tbaa !10
  %13 = load i32, ptr %4, align 4, !tbaa !6
  %14 = sext i32 %13 to i64
  %15 = shl nsw i64 %14, 1
  %16 = or disjoint i64 %15, 1
  %17 = call i64 @rb_ivar_set(i64 noundef %11, i64 noundef %12, i64 noundef %16) #9
  br label %18

18:                                               ; preds = %3, %8
  %.0 = phi i32 [ 2, %8 ], [ 0, %3 ]
  call void @llvm.lifetime.end.p0(i64 4, ptr nonnull %4) #9
  ret i32 %.0
}